; Listing generated by Microsoft (R) Optimizing Compiler Version 19.35.32217.1 

include listing.inc

INCLUDELIB MSVCRTD
INCLUDELIB OLDNAMES

msvcjmc	SEGMENT
__30EAD652_s_operations@h DB 01H
__7424102C_concurrencysal@h DB 01H
__7D4DA4FA_sal@h DB 01H
__0FC31696_vadefs@h DB 01H
__B56ADB44_vcruntime@h DB 01H
__51B79E59_xkeycheck@h DB 01H
__B5DFE31F_yvals_core@h DB 01H
__C9B856CF_limits@h DB 01H
__2674127B_climits DB 01H
__1B0272D9_corecrt@h DB 01H
__EBA563F3_vcruntime_new@h DB 01H
__D7109CAF_vcruntime_new_debug@h DB 01H
__935DC21B_crtdbg@h DB 01H
__00CBEA8D_crtdefs@h DB 01H
__8FC982FD_use_ansi@h DB 01H
__14DB8636_yvals@h DB 01H
__BB16330F_corecrt_math@h DB 01H
__3BF2A406_math@h DB 01H
__45DED006_corecrt_malloc@h DB 01H
__13F5961F_stddef@h DB 01H
__FD6DBD68_corecrt_search@h DB 01H
__E2E33A61_corecrt_wstdlib@h DB 01H
__6E5ACABA_stdlib@h DB 01H
__A29B3089_cstdlib DB 01H
__74C7B0B4_xtr1common DB 01H
__25BDFE26_intrin0@inl@h DB 01H
__19E65386_intrin0@h DB 01H
__1FF7AA4D_cmath DB 01H
__44420885_corecrt_stdio_config@h DB 01H
__AB601D8D_corecrt_wstdio@h DB 01H
__C1EC35D3_stdio@h DB 01H
__6855AA31_cstdio DB 01H
__61CC25A1_errno@h DB 01H
__E37A6634_vcruntime_string@h DB 01H
__E4C945B4_corecrt_memcpy_s@h DB 01H
__8EAFF484_corecrt_memory@h DB 01H
__6490AEC5_corecrt_wstring@h DB 01H
__E8295E1E_string@h DB 01H
__EE099869_cstring DB 01H
__EF1F6BBA_corecrt_wconio@h DB 01H
__74484FB3_corecrt_wctype@h DB 01H
__3D1D430C_corecrt_wdirect@h DB 01H
__8ECB7138_corecrt_share@h DB 01H
__DB7FEBA6_corecrt_wio@h DB 01H
__9A9F0068_corecrt_wprocess@h DB 01H
__369A9BC3_corecrt_wtime@h DB 01H
__CE789B9D_types@h DB 01H
__9901C817_stat@h DB 01H
__3FCAD62E_wchar@h DB 01H
__F2DE7C62_cwchar DB 01H
__0750EA24_cstddef DB 01H
__6EE2661F_initializer_list DB 01H
__62892210_xstddef DB 01H
__B11EF954_iosfwd DB 01H
__77CE78F0_stdint@h DB 01H
__1FC5D1F4_cstdint DB 01H
__1F1E5892_type_traits DB 01H
__9596B502_utility DB 01H
__9E977780___msvc_iter_core@hpp DB 01H
__1B16000D_xutility DB 01H
__0ABAB74D_iterator DB 01H
__F7972D0B_share@h DB 01H
__4E75CBD7___msvc_system_error_abi@hpp DB 01H
__F574DECA_cerrno DB 01H
__FA77ED4C_malloc@h DB 01H
__89766DA4_corecrt_terminate@h DB 01H
__6D69B109_eh@h DB 01H
__DFFE99FD_vcruntime_exception@h DB 01H
__C894841B_exception DB 01H
__B9985323_float@h DB 01H
__1B1161B6_cfloat DB 01H
__30F16C47_isa_availability@h DB 01H
__7DF72CD2_limits DB 01H
__1F199A81_new DB 01H
__C29808CD_xatomic@h DB 01H
__FF03D6C1_xmemory DB 01H
__B9D4B30C_tuple DB 01H
__D2854FD0_xpolymorphic_allocator@h DB 01H
__8BD0505D_xstring DB 01H
__41DABE46_stdexcept DB 01H
__F6473D4F_xcall_once@h DB 01H
__BC4E9339_xerrc@h DB 01H
__0A9237D2_time@h DB 01H
__D9443645_ctime DB 01H
__ADD2E34C_xtimec@h DB 01H
__EE87B54E_xthreads@h DB 01H
__16C27010_atomic DB 01H
__491A2F6F_system_error DB 01H
__8A79911F_vcruntime_typeinfo@h DB 01H
__6BC9F314_typeinfo DB 01H
__C159205C_memory DB 01H
__ED1C7753_xfacet DB 01H
__393F9422___msvc_xlocinfo_types@hpp DB 01H
__1EC467ED_ctype@h DB 01H
__679E4D96_cctype DB 01H
__791C33B7_locale@h DB 01H
__3137EC58_clocale DB 01H
__744010DC_xlocinfo DB 01H
__54EE246C_xlocale DB 01H
__4DA567CF_xiosbase DB 01H
__437A06FA_streambuf DB 01H
__CA69427B_xlocnum DB 01H
__E7D4A097_ios DB 01H
__47FEFEA8_ostream DB 01H
__242ECB92_istream DB 01H
__796F7A12_iostream DB 01H
__94529FF6_s_operations@cpp DB 01H
msvcjmc	ENDS
PUBLIC	?__empty_global_delete@@YAXPEAX@Z		; __empty_global_delete
PUBLIC	?__empty_global_delete@@YAXPEAX_K@Z		; __empty_global_delete
PUBLIC	?__empty_global_delete@@YAXPEAXW4align_val_t@std@@@Z ; __empty_global_delete
PUBLIC	?__empty_global_delete@@YAXPEAX_KW4align_val_t@std@@@Z ; __empty_global_delete
PUBLIC	?Dump@@YAXQEAHHAEAH1111@Z			; Dump
PUBLIC	__local_stdio_printf_options
PUBLIC	_vfprintf_l
PUBLIC	printf
PUBLIC	__JustMyCode_Default
PUBLIC	?_OptionsStorage@?1??__local_stdio_printf_options@@9@4_KA ; `__local_stdio_printf_options'::`2'::_OptionsStorage
PUBLIC	??_C@_0N@EDAAKLLI@REGISTERS?3?5?6@		; `string'
PUBLIC	??_C@_0BE@OIOHEPDA@accumulator?3?5?$CF?$CL05d?6@ ; `string'
PUBLIC	??_C@_0BK@NMIOHILL@instructionCounter?3?5?$CF02d?6@ ; `string'
PUBLIC	??_C@_0BM@OEDHCDBD@instructionRegister?3?5?$CF?$CL05d?6@ ; `string'
PUBLIC	??_C@_0BF@KKHBDEAB@operationCode?3?5?$CF02d?6@	; `string'
PUBLIC	??_C@_0P@JCEAPDOA@operand?3?5?$CF02d?6@		; `string'
PUBLIC	??_C@_0ED@HKEFDKHC@?5?5?5?5?5?5?5?5?5?50?5?5?5?5?51?5?5?5?5?52?5?5?5?5?53?5?5@ ; `string'
PUBLIC	??_C@_06KAEJJJIO@?$CFd?5?5?5?5@			; `string'
PUBLIC	??_C@_05HIBFNGCI@?$CFd?5?5?5@			; `string'
PUBLIC	??_C@_06JPEEOCPE@?5?$CF?$CL05d@			; `string'
PUBLIC	??_C@_06COPDDEAE@?$CF?$CL05d?5@			; `string'
PUBLIC	??_C@_01EEMJAFIK@?6@				; `string'
EXTRN	__imp___acrt_iob_func:PROC
EXTRN	__imp___stdio_common_vfprintf:PROC
EXTRN	__CheckForDebuggerJustMyCode:PROC
;	COMDAT ?_OptionsStorage@?1??__local_stdio_printf_options@@9@4_KA
_BSS	SEGMENT
?_OptionsStorage@?1??__local_stdio_printf_options@@9@4_KA DQ 01H DUP (?) ; `__local_stdio_printf_options'::`2'::_OptionsStorage
_BSS	ENDS
;	COMDAT pdata
pdata	SEGMENT
$pdata$?Dump@@YAXQEAHHAEAH1111@Z DD imagerel $LN20
	DD	imagerel $LN20+162
	DD	imagerel $unwind$?Dump@@YAXQEAHHAEAH1111@Z
pdata	ENDS
;	COMDAT pdata
pdata	SEGMENT
$pdata$0$?Dump@@YAXQEAHHAEAH1111@Z DD imagerel $LN20+162
	DD	imagerel $LN20+305
	DD	imagerel $chain$0$?Dump@@YAXQEAHHAEAH1111@Z
pdata	ENDS
;	COMDAT pdata
pdata	SEGMENT
$pdata$1$?Dump@@YAXQEAHHAEAH1111@Z DD imagerel $LN20+305
	DD	imagerel $LN20+326
	DD	imagerel $chain$1$?Dump@@YAXQEAHHAEAH1111@Z
pdata	ENDS
;	COMDAT pdata
pdata	SEGMENT
$pdata$__local_stdio_printf_options DD imagerel $LN4
	DD	imagerel $LN4+28
	DD	imagerel $unwind$__local_stdio_printf_options
pdata	ENDS
;	COMDAT pdata
pdata	SEGMENT
$pdata$_vfprintf_l DD imagerel $LN4
	DD	imagerel $LN4+93
	DD	imagerel $unwind$_vfprintf_l
pdata	ENDS
;	COMDAT pdata
pdata	SEGMENT
$pdata$printf DD imagerel $LN4
	DD	imagerel $LN4+78
	DD	imagerel $unwind$printf
pdata	ENDS
;	COMDAT ??_C@_01EEMJAFIK@?6@
CONST	SEGMENT
??_C@_01EEMJAFIK@?6@ DB 0aH, 00H			; `string'
CONST	ENDS
;	COMDAT ??_C@_06COPDDEAE@?$CF?$CL05d?5@
CONST	SEGMENT
??_C@_06COPDDEAE@?$CF?$CL05d?5@ DB '%+05d ', 00H	; `string'
CONST	ENDS
;	COMDAT ??_C@_06JPEEOCPE@?5?$CF?$CL05d@
CONST	SEGMENT
??_C@_06JPEEOCPE@?5?$CF?$CL05d@ DB ' %+05d', 00H	; `string'
CONST	ENDS
;	COMDAT ??_C@_05HIBFNGCI@?$CFd?5?5?5@
CONST	SEGMENT
??_C@_05HIBFNGCI@?$CFd?5?5?5@ DB '%d   ', 00H		; `string'
CONST	ENDS
;	COMDAT ??_C@_06KAEJJJIO@?$CFd?5?5?5?5@
CONST	SEGMENT
??_C@_06KAEJJJIO@?$CFd?5?5?5?5@ DB '%d    ', 00H	; `string'
CONST	ENDS
;	COMDAT ??_C@_0ED@HKEFDKHC@?5?5?5?5?5?5?5?5?5?50?5?5?5?5?51?5?5?5?5?52?5?5?5?5?53?5?5@
CONST	SEGMENT
??_C@_0ED@HKEFDKHC@?5?5?5?5?5?5?5?5?5?50?5?5?5?5?51?5?5?5?5?52?5?5?5?5?53?5?5@ DB ' '
	DB	'         0     1     2     3     4     5     6     7     8   '
	DB	'  9', 0aH, 00H				; `string'
CONST	ENDS
;	COMDAT ??_C@_0P@JCEAPDOA@operand?3?5?$CF02d?6@
CONST	SEGMENT
??_C@_0P@JCEAPDOA@operand?3?5?$CF02d?6@ DB 'operand: %02d', 0aH, 00H ; `string'
CONST	ENDS
;	COMDAT ??_C@_0BF@KKHBDEAB@operationCode?3?5?$CF02d?6@
CONST	SEGMENT
??_C@_0BF@KKHBDEAB@operationCode?3?5?$CF02d?6@ DB 'operationCode: %02d', 0aH
	DB	00H						; `string'
CONST	ENDS
;	COMDAT ??_C@_0BM@OEDHCDBD@instructionRegister?3?5?$CF?$CL05d?6@
CONST	SEGMENT
??_C@_0BM@OEDHCDBD@instructionRegister?3?5?$CF?$CL05d?6@ DB 'instructionR'
	DB	'egister: %+05d', 0aH, 00H			; `string'
CONST	ENDS
;	COMDAT ??_C@_0BK@NMIOHILL@instructionCounter?3?5?$CF02d?6@
CONST	SEGMENT
??_C@_0BK@NMIOHILL@instructionCounter?3?5?$CF02d?6@ DB 'instructionCounte'
	DB	'r: %02d', 0aH, 00H				; `string'
CONST	ENDS
;	COMDAT ??_C@_0BE@OIOHEPDA@accumulator?3?5?$CF?$CL05d?6@
CONST	SEGMENT
??_C@_0BE@OIOHEPDA@accumulator?3?5?$CF?$CL05d?6@ DB 'accumulator: %+05d', 0aH
	DB	00H						; `string'
CONST	ENDS
;	COMDAT ??_C@_0N@EDAAKLLI@REGISTERS?3?5?6@
CONST	SEGMENT
??_C@_0N@EDAAKLLI@REGISTERS?3?5?6@ DB 'REGISTERS: ', 0aH, 00H ; `string'
CONST	ENDS
;	COMDAT xdata
xdata	SEGMENT
$unwind$printf DD 021901H
	DD	030153219H
xdata	ENDS
;	COMDAT xdata
xdata	SEGMENT
$unwind$_vfprintf_l DD 081401H
	DD	0a6414H
	DD	095414H
	DD	083414H
	DD	070105214H
xdata	ENDS
;	COMDAT xdata
xdata	SEGMENT
$unwind$__local_stdio_printf_options DD 010401H
	DD	04204H
xdata	ENDS
;	COMDAT xdata
xdata	SEGMENT
$chain$1$?Dump@@YAXQEAHHAEAH1111@Z DD 021H
	DD	imagerel $LN20
	DD	imagerel $LN20+162
	DD	imagerel $unwind$?Dump@@YAXQEAHHAEAH1111@Z
xdata	ENDS
;	COMDAT xdata
xdata	SEGMENT
$chain$0$?Dump@@YAXQEAHHAEAH1111@Z DD 020521H
	DD	06e405H
	DD	imagerel $LN20
	DD	imagerel $LN20+162
	DD	imagerel $unwind$?Dump@@YAXQEAHHAEAH1111@Z
xdata	ENDS
;	COMDAT xdata
xdata	SEGMENT
$unwind$?Dump@@YAXQEAHHAEAH1111@Z DD 081401H
	DD	096414H
	DD	085414H
	DD	073414H
	DD	070103214H
xdata	ENDS
; Function compile flags: /Odt
;	COMDAT __JustMyCode_Default
_TEXT	SEGMENT
__JustMyCode_Default PROC				; COMDAT
	ret	0
__JustMyCode_Default ENDP
_TEXT	ENDS
; Function compile flags: /Ogtpy
;	COMDAT printf
_TEXT	SEGMENT
_Format$ = 48
printf	PROC						; COMDAT
; File C:\Program Files (x86)\Windows Kits\10\Include\10.0.22621.0\ucrt\stdio.h
; Line 956
$LN4:
	mov	QWORD PTR [rsp+8], rcx
	mov	QWORD PTR [rsp+16], rdx
	mov	QWORD PTR [rsp+24], r8
	mov	QWORD PTR [rsp+32], r9
	push	rbx
	sub	rsp, 32					; 00000020H
	lea	rcx, OFFSET FLAT:__C1EC35D3_stdio@h
	call	__CheckForDebuggerJustMyCode
	mov	ecx, 1
	lea	rbx, QWORD PTR _Format$[rsp+8]
	call	QWORD PTR __imp___acrt_iob_func
	mov	rdx, QWORD PTR _Format$[rsp]
	mov	r9, rbx
	mov	rcx, rax
	xor	r8d, r8d
	call	_vfprintf_l
; Line 963
	add	rsp, 32					; 00000020H
	pop	rbx
	ret	0
printf	ENDP
_TEXT	ENDS
; Function compile flags: /Ogtpy
;	COMDAT _vfprintf_l
_TEXT	SEGMENT
_Stream$ = 64
_Format$ = 72
_Locale$ = 80
_ArgList$ = 88
_vfprintf_l PROC					; COMDAT
; File C:\Program Files (x86)\Windows Kits\10\Include\10.0.22621.0\ucrt\stdio.h
; Line 644
$LN4:
	mov	QWORD PTR [rsp+8], rbx
	mov	QWORD PTR [rsp+16], rbp
	mov	QWORD PTR [rsp+24], rsi
	push	rdi
	sub	rsp, 48					; 00000030H
	mov	rbp, rcx
	mov	rbx, r9
	lea	rcx, OFFSET FLAT:__C1EC35D3_stdio@h
	mov	rdi, r8
	mov	rsi, rdx
	call	__CheckForDebuggerJustMyCode
	call	__local_stdio_printf_options
	mov	r9, rdi
	mov	QWORD PTR [rsp+32], rbx
	mov	r8, rsi
	mov	rdx, rbp
	mov	rcx, QWORD PTR [rax]
	call	QWORD PTR __imp___stdio_common_vfprintf
	mov	rbx, QWORD PTR [rsp+64]
	mov	rbp, QWORD PTR [rsp+72]
	mov	rsi, QWORD PTR [rsp+80]
; Line 646
	add	rsp, 48					; 00000030H
	pop	rdi
	ret	0
_vfprintf_l ENDP
_TEXT	ENDS
; Function compile flags: /Ogtpy
;	COMDAT __local_stdio_printf_options
_TEXT	SEGMENT
__local_stdio_printf_options PROC			; COMDAT
; File C:\Program Files (x86)\Windows Kits\10\Include\10.0.22621.0\ucrt\corecrt_stdio_config.h
; Line 90
$LN4:
	sub	rsp, 40					; 00000028H
	lea	rcx, OFFSET FLAT:__44420885_corecrt_stdio_config@h
	call	__CheckForDebuggerJustMyCode
	lea	rax, OFFSET FLAT:?_OptionsStorage@?1??__local_stdio_printf_options@@9@4_KA ; `__local_stdio_printf_options'::`2'::_OptionsStorage
; Line 93
	add	rsp, 40					; 00000028H
	ret	0
__local_stdio_printf_options ENDP
_TEXT	ENDS
; Function compile flags: /Ogtpy
;	COMDAT ?Dump@@YAXQEAHHAEAH1111@Z
_TEXT	SEGMENT
memory$ = 48
m_size$ = 56
eax$ = 64
icounter$ = 72
iregister$ = 80
opcode$ = 88
operand$ = 96
?Dump@@YAXQEAHHAEAH1111@Z PROC				; Dump, COMDAT
; File C:\Users\User\source\repos\Simpletron\s_operations.cpp
; Line 14
$LN20:
	mov	QWORD PTR [rsp+16], rbx
	mov	QWORD PTR [rsp+24], rbp
	mov	QWORD PTR [rsp+32], rsi
	push	rdi
	sub	rsp, 32					; 00000020H
	mov	rsi, rcx
	mov	rdi, r9
	lea	rcx, OFFSET FLAT:__94529FF6_s_operations@cpp
	mov	rbx, r8
	mov	ebp, edx
	call	__CheckForDebuggerJustMyCode
	lea	rcx, OFFSET FLAT:??_C@_0N@EDAAKLLI@REGISTERS?3?5?6@
	call	printf
	mov	edx, DWORD PTR [rbx]
	lea	rcx, OFFSET FLAT:??_C@_0BE@OIOHEPDA@accumulator?3?5?$CF?$CL05d?6@
	call	printf
	mov	edx, DWORD PTR [rdi]
	lea	rcx, OFFSET FLAT:??_C@_0BK@NMIOHILL@instructionCounter?3?5?$CF02d?6@
	call	printf
	mov	rax, QWORD PTR iregister$[rsp]
	lea	rcx, OFFSET FLAT:??_C@_0BM@OEDHCDBD@instructionRegister?3?5?$CF?$CL05d?6@
	mov	edx, DWORD PTR [rax]
	call	printf
	mov	rax, QWORD PTR opcode$[rsp]
	lea	rcx, OFFSET FLAT:??_C@_0BF@KKHBDEAB@operationCode?3?5?$CF02d?6@
	mov	edx, DWORD PTR [rax]
	call	printf
	mov	rax, QWORD PTR operand$[rsp]
	lea	rcx, OFFSET FLAT:??_C@_0P@JCEAPDOA@operand?3?5?$CF02d?6@
	mov	edx, DWORD PTR [rax]
	call	printf
	lea	rcx, OFFSET FLAT:??_C@_0ED@HKEFDKHC@?5?5?5?5?5?5?5?5?5?50?5?5?5?5?51?5?5?5?5?52?5?5?5?5?53?5?5@
	call	printf
	xor	ebx, ebx
	test	ebp, ebp
	jle	$LN3@Dump
	mov	QWORD PTR [rsp+48], r14
	lea	r14, OFFSET FLAT:??_C@_06COPDDEAE@?$CF?$CL05d?5@
	npad	2
$LL4@Dump:
; Line 27
	mov	eax, -858993459				; cccccccdH
	mov	edi, ebx
	mul	ebx
	shr	edx, 3
	lea	eax, DWORD PTR [rdx+rdx*4]
	add	eax, eax
	sub	edi, eax
	jne	SHORT $LN7@Dump
; Line 28
	test	ebx, ebx
	jne	SHORT $LN6@Dump
; Line 29
	xor	edx, edx
	lea	rcx, OFFSET FLAT:??_C@_06KAEJJJIO@?$CFd?5?5?5?5@
	call	printf
; Line 36
	lea	rcx, OFFSET FLAT:??_C@_06JPEEOCPE@?5?$CF?$CL05d@
; Line 37
	jmp	SHORT $LN10@Dump
$LN6@Dump:
; Line 32
	mov	edx, ebx
	lea	rcx, OFFSET FLAT:??_C@_05HIBFNGCI@?$CFd?5?5?5@
	call	printf
$LN7@Dump:
; Line 35
	cmp	ebx, 10
	jae	SHORT $LN8@Dump
; Line 36
	lea	rcx, OFFSET FLAT:??_C@_06JPEEOCPE@?5?$CF?$CL05d@
; Line 37
	jmp	SHORT $LN10@Dump
$LN8@Dump:
; Line 38
	cmp	ebx, 100				; 00000064H
	lea	rcx, OFFSET FLAT:??_C@_06JPEEOCPE@?5?$CF?$CL05d@
	cmovae	rcx, r14
$LN10@Dump:
; Line 44
	mov	edx, DWORD PTR [rsi]
	call	printf
	cmp	edi, 9
	jne	SHORT $LN2@Dump
; Line 45
	lea	rcx, OFFSET FLAT:??_C@_01EEMJAFIK@?6@
	call	printf
$LN2@Dump:
; Line 26
	inc	ebx
	add	rsi, 4
	cmp	ebx, ebp
	jl	SHORT $LL4@Dump
	mov	r14, QWORD PTR [rsp+48]
$LN3@Dump:
; Line 48
	mov	rbx, QWORD PTR [rsp+56]
	mov	rbp, QWORD PTR [rsp+64]
	mov	rsi, QWORD PTR [rsp+72]
	add	rsp, 32					; 00000020H
	pop	rdi
	ret	0
?Dump@@YAXQEAHHAEAH1111@Z ENDP				; Dump
_TEXT	ENDS
; Function compile flags: /Ogtpy
;	COMDAT ?__empty_global_delete@@YAXPEAX_KW4align_val_t@std@@@Z
_TEXT	SEGMENT
__formal$ = 8
__formal$ = 16
__formal$ = 24
?__empty_global_delete@@YAXPEAX_KW4align_val_t@std@@@Z PROC ; __empty_global_delete, COMDAT
; File C:\Users\User\source\repos\Simpletron\s_operations.cpp
	lea	rcx, OFFSET FLAT:__94529FF6_s_operations@cpp
	jmp	__CheckForDebuggerJustMyCode
?__empty_global_delete@@YAXPEAX_KW4align_val_t@std@@@Z ENDP ; __empty_global_delete
_TEXT	ENDS
; Function compile flags: /Ogtpy
;	COMDAT ?__empty_global_delete@@YAXPEAXW4align_val_t@std@@@Z
_TEXT	SEGMENT
__formal$ = 8
__formal$ = 16
?__empty_global_delete@@YAXPEAXW4align_val_t@std@@@Z PROC ; __empty_global_delete, COMDAT
; File C:\Users\User\source\repos\Simpletron\s_operations.cpp
	lea	rcx, OFFSET FLAT:__94529FF6_s_operations@cpp
	jmp	__CheckForDebuggerJustMyCode
?__empty_global_delete@@YAXPEAXW4align_val_t@std@@@Z ENDP ; __empty_global_delete
_TEXT	ENDS
; Function compile flags: /Ogtpy
;	COMDAT ?__empty_global_delete@@YAXPEAX_K@Z
_TEXT	SEGMENT
__formal$ = 8
__formal$ = 16
?__empty_global_delete@@YAXPEAX_K@Z PROC		; __empty_global_delete, COMDAT
; File C:\Users\User\source\repos\Simpletron\s_operations.cpp
	lea	rcx, OFFSET FLAT:__94529FF6_s_operations@cpp
	jmp	__CheckForDebuggerJustMyCode
?__empty_global_delete@@YAXPEAX_K@Z ENDP		; __empty_global_delete
_TEXT	ENDS
; Function compile flags: /Ogtpy
;	COMDAT ?__empty_global_delete@@YAXPEAX@Z
_TEXT	SEGMENT
__formal$ = 8
?__empty_global_delete@@YAXPEAX@Z PROC			; __empty_global_delete, COMDAT
; File C:\Users\User\source\repos\Simpletron\s_operations.cpp
	lea	rcx, OFFSET FLAT:__94529FF6_s_operations@cpp
	jmp	__CheckForDebuggerJustMyCode
?__empty_global_delete@@YAXPEAX@Z ENDP			; __empty_global_delete
_TEXT	ENDS
END
